target datalayout = "e-m:e-p270:32:32-p271:32:32-p272:64:64-i64:64-i128:128-f80:128-n8:16:32:64-S128"
target triple = "x86_64-pc-linux-gnu"

%struct.pointf_s = type { double, double }
%struct.boxf = type { %struct.pointf_s, %struct.pointf_s }
%struct.Agobj_s = type { %struct.Agtag_s, ptr }
%struct.Agtag_s = type { i32, i64 }
%struct.Agraphinfo_t = type { %struct.Agrec_s, ptr, ptr, %struct.boxf, [4 x %struct.pointf_s], i8, i8, i8, i8, i32, double, double, i16, ptr, ptr, ptr, ptr, i32, ptr, ptr, ptr, ptr, i16, i16, i32, ptr, ptr, ptr, ptr, ptr, i32, ptr, ptr, %struct.nlist_t, ptr, ptr, i32, i32, i8, i8, i32, i32, i32, ptr, ptr, ptr, ptr, i8, i8, i8, i8, i8 }
%struct.Agrec_s = type { ptr, ptr }
%struct.nlist_t = type { ptr, i64 }
%struct.layout_t = type { double, double, double, double, %struct.pointf_s, %struct.pointf_s, %struct.pointf_s, i8, i8, i8, i32, ptr, ptr }

@.str.117 = private unnamed_addr constant [13 x i8] c"Agraphinfo_t\00", align 1

; Function Attrs: nounwind uwtable
define void @graph_cleanup(ptr noundef %0) #0 {
  %2 = alloca ptr, align 8
  store ptr %0, ptr %2, align 8, !tbaa !14
  %3 = load ptr, ptr %2, align 8, !tbaa !14
  %4 = getelementptr inbounds nuw %struct.Agobj_s, ptr %3, i32 0, i32 1
  %5 = load ptr, ptr %4, align 8, !tbaa !92
  %6 = getelementptr inbounds nuw %struct.Agraphinfo_t, ptr %5, i32 0, i32 1
  %7 = load ptr, ptr %6, align 8, !tbaa !96
  %8 = icmp ne ptr %7, null
  br i1 %8, label %9, label %26

9:                                                ; preds = %1
  %10 = load ptr, ptr %2, align 8, !tbaa !14
  %11 = getelementptr inbounds nuw %struct.Agobj_s, ptr %10, i32 0, i32 1
  %12 = load ptr, ptr %11, align 8, !tbaa !92
  %13 = getelementptr inbounds nuw %struct.Agraphinfo_t, ptr %12, i32 0, i32 1
  %14 = load ptr, ptr %13, align 8, !tbaa !96
  %15 = getelementptr inbounds nuw %struct.layout_t, ptr %14, i32 0, i32 11
  %16 = load ptr, ptr %15, align 8, !tbaa !122
  %17 = icmp ne ptr %16, null
  br i1 %17, label %18, label %26

18:                                               ; preds = %9
  %19 = load ptr, ptr %2, align 8, !tbaa !14
  %20 = getelementptr inbounds nuw %struct.Agobj_s, ptr %19, i32 0, i32 1
  %21 = load ptr, ptr %20, align 8, !tbaa !92
  %22 = getelementptr inbounds nuw %struct.Agraphinfo_t, ptr %21, i32 0, i32 1
  %23 = load ptr, ptr %22, align 8, !tbaa !96
  %24 = getelementptr inbounds nuw %struct.layout_t, ptr %23, i32 0, i32 11
  %25 = load ptr, ptr %24, align 8, !tbaa !122
  call void @freeXDot(ptr noundef %25)
  br label %26

26:                                               ; preds = %18, %9, %1
  %27 = load ptr, ptr %2, align 8, !tbaa !14
  %28 = getelementptr inbounds nuw %struct.Agobj_s, ptr %27, i32 0, i32 1
  %29 = load ptr, ptr %28, align 8, !tbaa !92
  %30 = getelementptr inbounds nuw %struct.Agraphinfo_t, ptr %29, i32 0, i32 1
  %31 = load ptr, ptr %30, align 8, !tbaa !96
  %32 = icmp ne ptr %31, null
  br i1 %32, label %33, label %41

33:                                               ; preds = %26
  %34 = load ptr, ptr %2, align 8, !tbaa !14
  %35 = getelementptr inbounds nuw %struct.Agobj_s, ptr %34, i32 0, i32 1
  %36 = load ptr, ptr %35, align 8, !tbaa !92
  %37 = getelementptr inbounds nuw %struct.Agraphinfo_t, ptr %36, i32 0, i32 1
  %38 = load ptr, ptr %37, align 8, !tbaa !96
  %39 = getelementptr inbounds nuw %struct.layout_t, ptr %38, i32 0, i32 12
  %40 = load ptr, ptr %39, align 8, !tbaa !123
  call void @free(ptr noundef %40) #16
  br label %41

41:                                               ; preds = %33, %26
  %42 = load ptr, ptr %2, align 8, !tbaa !14
  %43 = getelementptr inbounds nuw %struct.Agobj_s, ptr %42, i32 0, i32 1
  %44 = load ptr, ptr %43, align 8, !tbaa !92
  %45 = getelementptr inbounds nuw %struct.Agraphinfo_t, ptr %44, i32 0, i32 1
  %46 = load ptr, ptr %45, align 8, !tbaa !96
  call void @free(ptr noundef %46) #16
  %47 = load ptr, ptr %2, align 8, !tbaa !14
  %48 = getelementptr inbounds nuw %struct.Agobj_s, ptr %47, i32 0, i32 1
  %49 = load ptr, ptr %48, align 8, !tbaa !92
  %50 = getelementptr inbounds nuw %struct.Agraphinfo_t, ptr %49, i32 0, i32 1
  store ptr null, ptr %50, align 8, !tbaa !96
  %51 = load ptr, ptr %2, align 8, !tbaa !14
  %52 = getelementptr inbounds nuw %struct.Agobj_s, ptr %51, i32 0, i32 1
  %53 = load ptr, ptr %52, align 8, !tbaa !92
  %54 = getelementptr inbounds nuw %struct.Agraphinfo_t, ptr %53, i32 0, i32 2
  %55 = load ptr, ptr %54, align 8, !tbaa !136
  call void @free_label(ptr noundef %55)
  %56 = load ptr, ptr %2, align 8, !tbaa !14
  call void @agclean(ptr noundef %56, i32 noundef 0, ptr noundef @.str.117)
  ret void
}