; Function Attrs: nounwind uwtable
define void @graph_cleanup(ptr noundef %0) local_unnamed_addr #4 {
  %2 = getelementptr inbounds nuw i8, ptr %0, i64 16
  %3 = load ptr, ptr %2, align 8, !tbaa !83
  %4 = getelementptr inbounds nuw i8, ptr %3, i64 16
  %5 = load ptr, ptr %4, align 8, !tbaa !87
  %.not = icmp eq ptr %5, null
  br i1 %.not, label %.thread, label %6

6:                                                ; preds = %1
  %7 = getelementptr inbounds nuw i8, ptr %5, i64 88
  %8 = load ptr, ptr %7, align 8, !tbaa !117
  %.not11 = icmp eq ptr %8, null
  br i1 %.not11, label %.thread18, label %9

9:                                                ; preds = %6
  tail call void @freeXDot(ptr noundef nonnull %8) #24
  %.pre = load ptr, ptr %2, align 8, !tbaa !83
  %.phi.trans.insert = getelementptr inbounds nuw i8, ptr %.pre, i64 16
  %.pre13 = load ptr, ptr %.phi.trans.insert, align 8, !tbaa !87
  %.not12 = icmp eq ptr %.pre13, null
  br i1 %.not12, label %.thread, label %.thread18

.thread18:                                        ; preds = %6, %9
  %10 = phi ptr [ %.pre13, %9 ], [ %5, %6 ]
  %11 = getelementptr inbounds nuw i8, ptr %10, i64 96
  %12 = load ptr, ptr %11, align 8, !tbaa !118
  tail call void @free(ptr noundef %12) #24
  %.pre14 = load ptr, ptr %2, align 8, !tbaa !83
  %.phi.trans.insert15 = getelementptr inbounds nuw i8, ptr %.pre14, i64 16
  %.pre16 = load ptr, ptr %.phi.trans.insert15, align 8, !tbaa !87
  br label %.thread

.thread:                                          ; preds = %1, %.thread18, %9
  %13 = phi ptr [ %.pre16, %.thread18 ], [ null, %9 ], [ null, %1 ]
  tail call void @free(ptr noundef %13) #24
  %14 = load ptr, ptr %2, align 8, !tbaa !83
  %15 = getelementptr inbounds nuw i8, ptr %14, i64 16
  store ptr null, ptr %15, align 8, !tbaa !87
  %16 = getelementptr inbounds nuw i8, ptr %14, i64 24
  %17 = load ptr, ptr %16, align 8, !tbaa !127
  tail call void @free_label(ptr noundef %17) #24
  tail call void @agclean(ptr noundef nonnull %0, i32 noundef 0, ptr noundef nonnull @.str.117) #24
  ret void
}